ARM GAS  C:\Users\Oskari\AppData\Local\Temp\cc5rHkA2.s 			page 1


   1              		.syntax unified
   2              		.cpu cortex-m3
   3              		.fpu softvfp
   4              		.eabi_attribute 20, 1
   5              		.eabi_attribute 21, 1
   6              		.eabi_attribute 23, 3
   7              		.eabi_attribute 24, 1
   8              		.eabi_attribute 25, 1
   9              		.eabi_attribute 26, 1
  10              		.eabi_attribute 30, 1
  11              		.eabi_attribute 34, 1
  12              		.eabi_attribute 18, 4
  13              		.thumb
  14              		.syntax unified
  15              		.file	"rotary_encoder.c"
  16              		.text
  17              	.Ltext0:
  18              		.cfi_sections	.debug_frame
  19              		.section	.text.isr_rotary_1_vec,"ax",%progbits
  20              		.align	2
  21              		.global	isr_rotary_1_vec
  22              		.thumb
  23              		.thumb_func
  24              		.type	isr_rotary_1_vec, %function
  25              	isr_rotary_1_vec:
  26              	.LFB63:
  27              		.file 1 "rotary_encoder.c"
   1:rotary_encoder.c **** /* ========================================
   2:rotary_encoder.c ****  *
   3:rotary_encoder.c ****  * Copyright YOUR COMPANY, THE YEAR
   4:rotary_encoder.c ****  * All Rights Reserved
   5:rotary_encoder.c ****  * UNPUBLISHED, LICENSED SOFTWARE.
   6:rotary_encoder.c ****  *
   7:rotary_encoder.c ****  * CONFIDENTIAL AND PROPRIETARY INFORMATION
   8:rotary_encoder.c ****  * WHICH IS THE PROPERTY OF your company.
   9:rotary_encoder.c ****  *
  10:rotary_encoder.c ****  * ========================================
  11:rotary_encoder.c **** */
  12:rotary_encoder.c **** 
  13:rotary_encoder.c **** #include "project.h"
  14:rotary_encoder.c **** #include "rotary_encoder.h"
  15:rotary_encoder.c **** 
  16:rotary_encoder.c **** unsigned int _pos = 0;
  17:rotary_encoder.c **** 
  18:rotary_encoder.c **** CY_ISR(isr_rotary_1_vec)
  19:rotary_encoder.c **** {
  28              		.loc 1 19 0
  29              		.cfi_startproc
  30              		@ args = 0, pretend = 0, frame = 0
  31              		@ frame_needed = 0, uses_anonymous_args = 0
  32              		@ link register save eliminated.
  20:rotary_encoder.c ****     _pos++;
  33              		.loc 1 20 0
  34 0000 024A     		ldr	r2, .L2
  35 0002 1368     		ldr	r3, [r2]
  36 0004 0133     		adds	r3, r3, #1
  37 0006 1360     		str	r3, [r2]
ARM GAS  C:\Users\Oskari\AppData\Local\Temp\cc5rHkA2.s 			page 2


  38 0008 7047     		bx	lr
  39              	.L3:
  40 000a 00BF     		.align	2
  41              	.L2:
  42 000c 00000000 		.word	.LANCHOR0
  43              		.cfi_endproc
  44              	.LFE63:
  45              		.size	isr_rotary_1_vec, .-isr_rotary_1_vec
  46              		.section	.text.isr_rotary_2_vec,"ax",%progbits
  47              		.align	2
  48              		.global	isr_rotary_2_vec
  49              		.thumb
  50              		.thumb_func
  51              		.type	isr_rotary_2_vec, %function
  52              	isr_rotary_2_vec:
  53              	.LFB64:
  21:rotary_encoder.c **** }
  22:rotary_encoder.c **** 
  23:rotary_encoder.c **** CY_ISR(isr_rotary_2_vec)
  24:rotary_encoder.c **** {
  54              		.loc 1 24 0
  55              		.cfi_startproc
  56              		@ args = 0, pretend = 0, frame = 0
  57              		@ frame_needed = 0, uses_anonymous_args = 0
  58              		@ link register save eliminated.
  25:rotary_encoder.c ****     _pos--;
  59              		.loc 1 25 0
  60 0000 024A     		ldr	r2, .L5
  61 0002 1368     		ldr	r3, [r2]
  62 0004 013B     		subs	r3, r3, #1
  63 0006 1360     		str	r3, [r2]
  64 0008 7047     		bx	lr
  65              	.L6:
  66 000a 00BF     		.align	2
  67              	.L5:
  68 000c 00000000 		.word	.LANCHOR0
  69              		.cfi_endproc
  70              	.LFE64:
  71              		.size	isr_rotary_2_vec, .-isr_rotary_2_vec
  72              		.section	.text.InitRotary,"ax",%progbits
  73              		.align	2
  74              		.global	InitRotary
  75              		.thumb
  76              		.thumb_func
  77              		.type	InitRotary, %function
  78              	InitRotary:
  79              	.LFB65:
  26:rotary_encoder.c **** }
  27:rotary_encoder.c **** 
  28:rotary_encoder.c **** void InitRotary()
  29:rotary_encoder.c **** {
  80              		.loc 1 29 0
  81              		.cfi_startproc
  82              		@ args = 0, pretend = 0, frame = 0
  83              		@ frame_needed = 0, uses_anonymous_args = 0
  84 0000 08B5     		push	{r3, lr}
  85              		.cfi_def_cfa_offset 8
ARM GAS  C:\Users\Oskari\AppData\Local\Temp\cc5rHkA2.s 			page 3


  86              		.cfi_offset 3, -8
  87              		.cfi_offset 14, -4
  30:rotary_encoder.c ****     isr_rotary_1_StartEx(isr_rotary_1_vec);
  88              		.loc 1 30 0
  89 0002 0348     		ldr	r0, .L9
  90 0004 FFF7FEFF 		bl	isr_rotary_1_StartEx
  91              	.LVL0:
  31:rotary_encoder.c ****     isr_rotary_2_StartEx(isr_rotary_2_vec);
  92              		.loc 1 31 0
  93 0008 0248     		ldr	r0, .L9+4
  94 000a FFF7FEFF 		bl	isr_rotary_2_StartEx
  95              	.LVL1:
  96 000e 08BD     		pop	{r3, pc}
  97              	.L10:
  98              		.align	2
  99              	.L9:
 100 0010 00000000 		.word	isr_rotary_1_vec
 101 0014 00000000 		.word	isr_rotary_2_vec
 102              		.cfi_endproc
 103              	.LFE65:
 104              		.size	InitRotary, .-InitRotary
 105              		.section	.text.GetRotaryPos,"ax",%progbits
 106              		.align	2
 107              		.global	GetRotaryPos
 108              		.thumb
 109              		.thumb_func
 110              		.type	GetRotaryPos, %function
 111              	GetRotaryPos:
 112              	.LFB66:
  32:rotary_encoder.c **** }
  33:rotary_encoder.c **** 
  34:rotary_encoder.c **** unsigned int GetRotaryPos()
  35:rotary_encoder.c **** {
 113              		.loc 1 35 0
 114              		.cfi_startproc
 115              		@ args = 0, pretend = 0, frame = 0
 116              		@ frame_needed = 0, uses_anonymous_args = 0
 117              		@ link register save eliminated.
  36:rotary_encoder.c ****     return _pos;
  37:rotary_encoder.c **** }
 118              		.loc 1 37 0
 119 0000 014B     		ldr	r3, .L12
 120 0002 1868     		ldr	r0, [r3]
 121 0004 7047     		bx	lr
 122              	.L13:
 123 0006 00BF     		.align	2
 124              	.L12:
 125 0008 00000000 		.word	.LANCHOR0
 126              		.cfi_endproc
 127              	.LFE66:
 128              		.size	GetRotaryPos, .-GetRotaryPos
 129              		.global	_pos
 130              		.bss
 131              		.align	2
 132              		.set	.LANCHOR0,. + 0
 133              		.type	_pos, %object
 134              		.size	_pos, 4
ARM GAS  C:\Users\Oskari\AppData\Local\Temp\cc5rHkA2.s 			page 4


 135              	_pos:
 136 0000 00000000 		.space	4
 137              		.text
 138              	.Letext0:
 139              		.file 2 "d:\\programs\\cypress\\psoc creator\\4.4\\psoc creator\\import\\gnu\\arm\\5.4.1\\arm-none
 140              		.file 3 "d:\\programs\\cypress\\psoc creator\\4.4\\psoc creator\\import\\gnu\\arm\\5.4.1\\arm-none
 141              		.file 4 "Generated_Source\\PSoC5/core_cm3.h"
 142              		.file 5 "Generated_Source\\PSoC5/isr_rotary_1.h"
 143              		.file 6 "Generated_Source\\PSoC5/isr_rotary_2.h"